ccopy_reg
_reconstructor
p0
(cargparse
Namespace
p1
c__builtin__
object
p2
Ntp3
Rp4
(dp5
Vdataset
p6
Vadult
p7
sVmeasure
p8
Vshapley
p9
sVsensitive
p10
NsVtarget
p11
NsVerase_sensitive
p12
I01
sVshow_plot
p13
I00
sVoutput_pdf
p14
I00
sVclassifier
p15
(lp16
Vdecision-forest
p17
aVlogistic
p18
asVmax_depth
p19
L2L
sVn_estimators
p20
L20L
sVseed
p21
NsVactive_iterations
p22
L10L
sVrecord_counterfactuals
p23
I00
sVindividual
p24
L0L
sVbatch_mode
p25
I01
sVbatch_mode_samples
p26
L10000L
sVoutput_suffix
p27
V_10k_dbl
p28
sb.